target datalayout = "e-m:e-p270:32:32-p271:32:32-p272:64:64-i64:64-i128:128-f80:128-n8:16:32:64-S128"
target triple = "x86_64-unknown-linux-gnu"

%"class.QuantLib::CEVRNDCalculator" = type { %"class.QuantLib::RiskNeutralDensityCalculator", double, double, double, double, double }
%"class.QuantLib::RiskNeutralDensityCalculator" = type { ptr }

; Function Attrs: inlinehint mustprogress nounwind uwtable
define linkonce_odr noundef double @_ZN8QuantLib7squaredIdEET_S1_(double noundef %x) #1 comdat {
entry:
  %x.addr = alloca double, align 8
  store double %x, ptr %x.addr, align 8, !tbaa !7
  %0 = load double, ptr %x.addr, align 8, !tbaa !7
  %1 = load double, ptr %x.addr, align 8, !tbaa !7
  %mul = fmul double %0, %1
  ret double %mul
}

; Function Attrs: inlinehint mustprogress nounwind uwtable
define linkonce_odr noundef nonnull align 8 dereferenceable(8) ptr @_ZSt3maxIdERKT_S2_S2_(ptr noundef nonnull align 8 dereferenceable(8) %__a, ptr noundef nonnull align 8 dereferenceable(8) %__b) #1 comdat {
entry:
  %retval = alloca ptr, align 8
  %__a.addr = alloca ptr, align 8
  %__b.addr = alloca ptr, align 8
  store ptr %__a, ptr %__a.addr, align 8, !tbaa !3
  store ptr %__b, ptr %__b.addr, align 8, !tbaa !3
  %0 = load ptr, ptr %__a.addr, align 8, !tbaa !3
  %1 = load double, ptr %0, align 8, !tbaa !7
  %2 = load ptr, ptr %__b.addr, align 8, !tbaa !3
  %3 = load double, ptr %2, align 8, !tbaa !7
  %cmp = fcmp olt double %1, %3
  br i1 %cmp, label %if.then, label %if.end

if.then:                                          ; preds = %entry
  %4 = load ptr, ptr %__b.addr, align 8, !tbaa !3
  store ptr %4, ptr %retval, align 8
  br label %return

if.end:                                           ; preds = %entry
  %5 = load ptr, ptr %__a.addr, align 8, !tbaa !3
  store ptr %5, ptr %retval, align 8
  br label %return

return:                                           ; preds = %if.end, %if.then
  %6 = load ptr, ptr %retval, align 8
  ret ptr %6
}

; Function Attrs: mustprogress uwtable
define noundef double @_ZNK8QuantLib16CEVRNDCalculator14sankaranApproxEddd(ptr noundef nonnull align 8 dereferenceable(48) %this, double noundef %c, double noundef %t, double noundef %x) #0 align 2 {
entry:
  %this.addr = alloca ptr, align 8
  %c.addr = alloca double, align 8
  %t.addr = alloca double, align 8
  %x.addr = alloca double, align 8
  %a = alloca double, align 8
  %b = alloca double, align 8
  %ref.tmp = alloca double, align 8
  %h = alloca double, align 8
  %p = alloca double, align 8
  %m = alloca double, align 8
  %u = alloca double, align 8
  store ptr %this, ptr %this.addr, align 8, !tbaa !3
  store double %c, ptr %c.addr, align 8, !tbaa !7
  store double %t, ptr %t.addr, align 8, !tbaa !7
  store double %x, ptr %x.addr, align 8, !tbaa !7
  %this1 = load ptr, ptr %this.addr, align 8
  call void @llvm.lifetime.start.p0(i64 8, ptr %a) #25
  %x0_ = getelementptr inbounds nuw %"class.QuantLib::CEVRNDCalculator", ptr %this1, i32 0, i32 5
  %0 = load double, ptr %x0_, align 8, !tbaa !17
  %1 = load double, ptr %t.addr, align 8, !tbaa !7
  %div = fdiv double %0, %1
  store double %div, ptr %a, align 8, !tbaa !7
  call void @llvm.lifetime.start.p0(i64 8, ptr %b) #25
  %delta_ = getelementptr inbounds nuw %"class.QuantLib::CEVRNDCalculator", ptr %this1, i32 0, i32 4
  %2 = load double, ptr %delta_, align 8, !tbaa !16
  %sub = fsub double 2.000000e+00, %2
  store double %sub, ptr %b, align 8, !tbaa !7
  call void @llvm.lifetime.start.p0(i64 8, ptr %ref.tmp) #25
  %3 = load double, ptr %b, align 8, !tbaa !7
  %mul = fmul double -4.500000e-01, %3
  store double %mul, ptr %ref.tmp, align 8, !tbaa !7
  %call = call noundef nonnull align 8 dereferenceable(8) ptr @_ZSt3maxIdERKT_S2_S2_(ptr noundef nonnull align 8 dereferenceable(8) %c.addr, ptr noundef nonnull align 8 dereferenceable(8) %ref.tmp)
  %4 = load double, ptr %call, align 8, !tbaa !7
  store double %4, ptr %c.addr, align 8, !tbaa !7
  call void @llvm.lifetime.end.p0(i64 8, ptr %ref.tmp) #25
  call void @llvm.lifetime.start.p0(i64 8, ptr %h) #25
  %5 = load double, ptr %b, align 8, !tbaa !7
  %6 = load double, ptr %c.addr, align 8, !tbaa !7
  %add = fadd double %5, %6
  %mul2 = fmul double 2.000000e+00, %add
  %7 = load double, ptr %b, align 8, !tbaa !7
  %8 = load double, ptr %c.addr, align 8, !tbaa !7
  %9 = call double @llvm.fmuladd.f64(double 3.000000e+00, double %8, double %7)
  %mul4 = fmul double %mul2, %9
  %10 = load double, ptr %b, align 8, !tbaa !7
  %11 = load double, ptr %c.addr, align 8, !tbaa !7
  %12 = call double @llvm.fmuladd.f64(double 2.000000e+00, double %11, double %10)
  %call6 = call noundef double @_ZN8QuantLib7squaredIdEET_S1_(double noundef %12)
  %mul7 = fmul double 3.000000e+00, %call6
  %div8 = fdiv double %mul4, %mul7
  %sub9 = fsub double 1.000000e+00, %div8
  store double %sub9, ptr %h, align 8, !tbaa !7
  call void @llvm.lifetime.start.p0(i64 8, ptr %p) #25
  %13 = load double, ptr %b, align 8, !tbaa !7
  %14 = load double, ptr %c.addr, align 8, !tbaa !7
  %15 = call double @llvm.fmuladd.f64(double 2.000000e+00, double %14, double %13)
  %16 = load double, ptr %b, align 8, !tbaa !7
  %17 = load double, ptr %c.addr, align 8, !tbaa !7
  %add11 = fadd double %16, %17
  %call12 = call noundef double @_ZN8QuantLib7squaredIdEET_S1_(double noundef %add11)
  %div13 = fdiv double %15, %call12
  store double %div13, ptr %p, align 8, !tbaa !7
  call void @llvm.lifetime.start.p0(i64 8, ptr %m) #25
  %18 = load double, ptr %h, align 8, !tbaa !7
  %sub14 = fsub double %18, 1.000000e+00
  %19 = load double, ptr %h, align 8, !tbaa !7
  %20 = call double @llvm.fmuladd.f64(double -3.000000e+00, double %19, double 1.000000e+00)
  %mul16 = fmul double %sub14, %20
  store double %mul16, ptr %m, align 8, !tbaa !7
  call void @llvm.lifetime.start.p0(i64 8, ptr %u) #25
  %21 = load double, ptr %a, align 8, !tbaa !7
  %22 = load double, ptr %b, align 8, !tbaa !7
  %23 = load double, ptr %c.addr, align 8, !tbaa !7
  %add17 = fadd double %22, %23
  %div18 = fdiv double %21, %add17
  %24 = load double, ptr %h, align 8, !tbaa !7
  %call19 = call double @pow(double noundef %div18, double noundef %24) #25, !tbaa !18
  %25 = load double, ptr %h, align 8, !tbaa !7
  %26 = load double, ptr %p, align 8, !tbaa !7
  %mul20 = fmul double %25, %26
  %27 = load double, ptr %h, align 8, !tbaa !7
  %sub21 = fsub double %27, 1.000000e+00
  %28 = load double, ptr %h, align 8, !tbaa !7
  %sub22 = fsub double 2.000000e+00, %28
  %mul23 = fmul double 5.000000e-01, %sub22
  %29 = load double, ptr %m, align 8, !tbaa !7
  %mul24 = fmul double %mul23, %29
  %30 = load double, ptr %p, align 8, !tbaa !7
  %neg = fneg double %mul24
  %31 = call double @llvm.fmuladd.f64(double %neg, double %30, double %sub21)
  %32 = call double @llvm.fmuladd.f64(double %mul20, double %31, double 1.000000e+00)
  %sub27 = fsub double %call19, %32
  %33 = load double, ptr %h, align 8, !tbaa !7
  %34 = load double, ptr %p, align 8, !tbaa !7
  %mul28 = fmul double 2.000000e+00, %34
  %call29 = call double @sqrt(double noundef %mul28) #25, !tbaa !18
  %mul30 = fmul double %33, %call29
  %35 = load double, ptr %m, align 8, !tbaa !7
  %mul31 = fmul double 5.000000e-01, %35
  %36 = load double, ptr %p, align 8, !tbaa !7
  %37 = call double @llvm.fmuladd.f64(double %mul31, double %36, double 1.000000e+00)
  %mul33 = fmul double %mul30, %37
  %div34 = fdiv double %sub27, %mul33
  store double %div34, ptr %u, align 8, !tbaa !7
  %38 = load double, ptr %u, align 8, !tbaa !7
  %39 = load double, ptr %x.addr, align 8, !tbaa !7
  %sub35 = fsub double %38, %39
  call void @llvm.lifetime.end.p0(i64 8, ptr %u) #25
  call void @llvm.lifetime.end.p0(i64 8, ptr %m) #25
  call void @llvm.lifetime.end.p0(i64 8, ptr %p) #25
  call void @llvm.lifetime.end.p0(i64 8, ptr %h) #25
  call void @llvm.lifetime.end.p0(i64 8, ptr %b) #25
  call void @llvm.lifetime.end.p0(i64 8, ptr %a) #25
  ret double %sub35
}