; Function Attrs: mustprogress nofree nounwind willreturn memory(write, argmem: readwrite) uwtable
define noundef double @_ZNK8QuantLib16CEVRNDCalculator14sankaranApproxEddd(ptr nocapture noundef nonnull readonly align 8 dereferenceable(48) %this, double noundef %c, double noundef %t, double noundef %x) local_unnamed_addr #2 align 2 {
entry:
  %x0_ = getelementptr inbounds nuw i8, ptr %this, i64 40
  %0 = load double, ptr %x0_, align 8, !tbaa !16
  %div = fdiv double %0, %t
  %delta_ = getelementptr inbounds nuw i8, ptr %this, i64 32
  %1 = load double, ptr %delta_, align 8, !tbaa !13
  %sub = fsub double 2.000000e+00, %1
  %mul = fmul double %sub, -4.500000e-01
  %cmp.i = fcmp olt double %c, %mul
  %.sroa.speculated = select i1 %cmp.i, double %mul, double %c
  %add = fadd double %sub, %.sroa.speculated
  %mul2 = fmul double %add, 2.000000e+00
  %2 = tail call double @llvm.fmuladd.f64(double %.sroa.speculated, double 3.000000e+00, double %sub)
  %mul4 = fmul double %2, %mul2
  %3 = tail call double @llvm.fmuladd.f64(double %.sroa.speculated, double 2.000000e+00, double %sub)
  %mul.i = fmul double %3, %3
  %mul7 = fmul double %mul.i, 3.000000e+00
  %div8 = fdiv double %mul4, %mul7
  %sub9 = fsub double 1.000000e+00, %div8
  %mul.i17 = fmul double %add, %add
  %div13 = fdiv double %3, %mul.i17
  %sub14 = fadd double %sub9, -1.000000e+00
  %4 = tail call double @llvm.fmuladd.f64(double %sub9, double -3.000000e+00, double 1.000000e+00)
  %mul16 = fmul double %sub14, %4
  %div18 = fdiv double %div, %add
  %call19 = tail call double @pow(double noundef %div18, double noundef %sub9) #34, !tbaa !14
  %mul20 = fmul double %div13, %sub9
  %sub22 = fsub double 2.000000e+00, %sub9
  %mul23 = fmul double %sub22, 5.000000e-01
  %5 = fneg double %mul16
  %neg = fmul double %mul23, %5
  %6 = tail call double @llvm.fmuladd.f64(double %neg, double %div13, double %sub14)
  %7 = tail call double @llvm.fmuladd.f64(double %mul20, double %6, double 1.000000e+00)
  %sub27 = fsub double %call19, %7
  %mul28 = fmul double %div13, 2.000000e+00
  %call29 = tail call double @sqrt(double noundef %mul28) #34, !tbaa !14
  %mul30 = fmul double %call29, %sub9
  %mul31 = fmul double %mul16, 5.000000e-01
  %8 = tail call double @llvm.fmuladd.f64(double %mul31, double %div13, double 1.000000e+00)
  %mul33 = fmul double %mul30, %8
  %div34 = fdiv double %sub27, %mul33
  %sub35 = fsub double %div34, %x
  ret double %sub35
}